target datalayout = "e-m:e-p270:32:32-p271:32:32-p272:64:64-i64:64-i128:128-f80:128-n8:16:32:64-S128"
target triple = "x86_64-pc-linux-gnu"

; Function Attrs: alwaysinline nounwind willreturn memory(none) uwtable
define internal double @av_clipd_c(double noundef %0, double noundef %1, double noundef %2) #10 {
  %4 = alloca double, align 8
  %5 = alloca double, align 8
  %6 = alloca double, align 8
  store double %0, ptr %4, align 8, !tbaa !94
  store double %1, ptr %5, align 8, !tbaa !94
  store double %2, ptr %6, align 8, !tbaa !94
  %7 = load double, ptr %4, align 8, !tbaa !94
  %8 = load double, ptr %5, align 8, !tbaa !94
  %9 = fcmp nsz ogt double %7, %8
  br i1 %9, label %10, label %12

10:                                               ; preds = %3
  %11 = load double, ptr %4, align 8, !tbaa !94
  br label %14

12:                                               ; preds = %3
  %13 = load double, ptr %5, align 8, !tbaa !94
  br label %14

14:                                               ; preds = %12, %10
  %15 = phi nsz double [ %11, %10 ], [ %13, %12 ]
  %16 = load double, ptr %6, align 8, !tbaa !94
  %17 = fcmp nsz ogt double %15, %16
  br i1 %17, label %18, label %20

18:                                               ; preds = %14
  %19 = load double, ptr %6, align 8, !tbaa !94
  br label %30

20:                                               ; preds = %14
  %21 = load double, ptr %4, align 8, !tbaa !94
  %22 = load double, ptr %5, align 8, !tbaa !94
  %23 = fcmp nsz ogt double %21, %22
  br i1 %23, label %24, label %26

24:                                               ; preds = %20
  %25 = load double, ptr %4, align 8, !tbaa !94
  br label %28

26:                                               ; preds = %20
  %27 = load double, ptr %5, align 8, !tbaa !94
  br label %28

28:                                               ; preds = %26, %24
  %29 = phi nsz double [ %25, %24 ], [ %27, %26 ]
  br label %30

30:                                               ; preds = %28, %18
  %31 = phi nsz double [ %19, %18 ], [ %29, %28 ]
  ret double %31
}

; Function Attrs: nounwind uwtable
define internal double @r_func(ptr noundef %0, double noundef %1) #1 {
  %3 = alloca ptr, align 8
  %4 = alloca double, align 8
  store ptr %0, ptr %3, align 8, !tbaa !159
  store double %1, ptr %4, align 8, !tbaa !94
  %5 = load double, ptr %4, align 8, !tbaa !94
  %6 = call nsz double @av_clipd_c(double noundef %5, double noundef 0.000000e+00, double noundef 1.000000e+00) #13
  store double %6, ptr %4, align 8, !tbaa !94
  %7 = load double, ptr %4, align 8, !tbaa !94
  %8 = fmul nsz double %7, 2.550000e+02
  %9 = call i64 @llvm.lrint.i64.f64(double %8)
  %10 = shl i64 %9, 16
  %11 = sitofp i64 %10 to double
  ret double %11
}